; ModuleID = '4/196.c'
source_filename = "4/196.c"
target datalayout = "e-m:e-p270:32:32-p271:32:32-p272:64:64-i64:64-f80:128-n8:16:32:64-S128"
target triple = "x86_64-pc-linux-gnu"

@.str = private unnamed_addr constant [5 x i8] c"%d%d\00", align 1
@.str.1 = private unnamed_addr constant [3 x i8] c"%d\00", align 1
@.str.2 = private unnamed_addr constant [4 x i8] c"%d\0A\00", align 1

; Function Attrs: noinline nounwind uwtable
define dso_local i32 @main() #0 {
  %1 = alloca i32, align 4
  %2 = alloca i32, align 4
  %3 = alloca i32, align 4
  %4 = alloca [100 x [1000 x i32]], align 16
  %5 = alloca i32, align 4
  %6 = alloca i32, align 4
  %7 = alloca i32, align 4
  %8 = alloca i32, align 4
  %9 = alloca i32, align 4
  %10 = alloca i32, align 4
  store i32 0, i32* %1, align 4
  store i32 0, i32* %9, align 4
  store i32 1, i32* %10, align 4
  %11 = call i32 (i8*, ...) @__isoc99_scanf(i8* getelementptr inbounds ([5 x i8], [5 x i8]* @.str, i64 0, i64 0), i32* %2, i32* %3)
  store i32 0, i32* %5, align 4
  br label %12

12:                                               ; preds = %33, %0
  %13 = load i32, i32* %5, align 4
  %14 = load i32, i32* %2, align 4
  %15 = icmp slt i32 %13, %14
  br i1 %15, label %16, label %36

16:                                               ; preds = %12
  store i32 0, i32* %6, align 4
  br label %17

17:                                               ; preds = %29, %16
  %18 = load i32, i32* %6, align 4
  %19 = load i32, i32* %3, align 4
  %20 = icmp slt i32 %18, %19
  br i1 %20, label %21, label %32

21:                                               ; preds = %17
  %22 = load i32, i32* %5, align 4
  %23 = sext i32 %22 to i64
  %24 = getelementptr inbounds [100 x [1000 x i32]], [100 x [1000 x i32]]* %4, i64 0, i64 %23
  %25 = load i32, i32* %6, align 4
  %26 = sext i32 %25 to i64
  %27 = getelementptr inbounds [1000 x i32], [1000 x i32]* %24, i64 0, i64 %26
  %28 = call i32 (i8*, ...) @__isoc99_scanf(i8* getelementptr inbounds ([3 x i8], [3 x i8]* @.str.1, i64 0, i64 0), i32* %27)
  br label %29

29:                                               ; preds = %21
  %30 = load i32, i32* %6, align 4
  %31 = add nsw i32 %30, 1
  store i32 %31, i32* %6, align 4
  br label %17

32:                                               ; preds = %17
  br label %33

33:                                               ; preds = %32
  %34 = load i32, i32* %5, align 4
  %35 = add nsw i32 %34, 1
  store i32 %35, i32* %5, align 4
  br label %12

36:                                               ; preds = %12
  %37 = load i32, i32* %2, align 4
  %38 = load i32, i32* %3, align 4
  %39 = mul nsw i32 %37, %38
  store i32 %39, i32* %7, align 4
  store i32 0, i32* %5, align 4
  store i32 0, i32* %6, align 4
  store i32 0, i32* %8, align 4
  br label %40

40:                                               ; preds = %136, %36
  %41 = load i32, i32* %8, align 4
  %42 = load i32, i32* %7, align 4
  %43 = icmp slt i32 %41, %42
  br i1 %43, label %44, label %139

44:                                               ; preds = %40
  %45 = load i32, i32* %5, align 4
  %46 = sext i32 %45 to i64
  %47 = getelementptr inbounds [100 x [1000 x i32]], [100 x [1000 x i32]]* %4, i64 0, i64 %46
  %48 = load i32, i32* %6, align 4
  %49 = sext i32 %48 to i64
  %50 = getelementptr inbounds [1000 x i32], [1000 x i32]* %47, i64 0, i64 %49
  %51 = load i32, i32* %50, align 4
  %52 = call i32 (i8*, ...) @printf(i8* getelementptr inbounds ([4 x i8], [4 x i8]* @.str.2, i64 0, i64 0), i32 %51)
  %53 = load i32, i32* %2, align 4
  %54 = load i32, i32* %3, align 4
  %55 = icmp sge i32 %53, %54
  br i1 %55, label %56, label %92

56:                                               ; preds = %44
  %57 = load i32, i32* %6, align 4
  %58 = icmp eq i32 %57, 0
  br i1 %58, label %59, label %67

59:                                               ; preds = %56
  %60 = load i32, i32* %5, align 4
  %61 = load i32, i32* %3, align 4
  %62 = sub nsw i32 %61, 1
  %63 = icmp slt i32 %60, %62
  br i1 %63, label %64, label %67

64:                                               ; preds = %59
  %65 = load i32, i32* %5, align 4
  %66 = add nsw i32 %65, 2
  store i32 %66, i32* %6, align 4
  store i32 -1, i32* %5, align 4
  br label %67

67:                                               ; preds = %64, %59, %56
  %68 = load i32, i32* %6, align 4
  %69 = add nsw i32 %68, -1
  store i32 %69, i32* %6, align 4
  %70 = load i32, i32* %5, align 4
  %71 = add nsw i32 %70, 1
  store i32 %71, i32* %5, align 4
  %72 = load i32, i32* %6, align 4
  %73 = icmp slt i32 %72, 0
  br i1 %73, label %74, label %79

74:                                               ; preds = %67
  %75 = load i32, i32* %5, align 4
  %76 = load i32, i32* %3, align 4
  %77 = sub nsw i32 %76, 1
  %78 = icmp sgt i32 %75, %77
  br i1 %78, label %84, label %79

79:                                               ; preds = %74, %67
  %80 = load i32, i32* %5, align 4
  %81 = load i32, i32* %2, align 4
  %82 = sub nsw i32 %81, 1
  %83 = icmp sgt i32 %80, %82
  br i1 %83, label %84, label %91

84:                                               ; preds = %79, %74
  %85 = load i32, i32* %3, align 4
  %86 = sub nsw i32 %85, 1
  store i32 %86, i32* %6, align 4
  %87 = load i32, i32* %9, align 4
  %88 = add nsw i32 %87, 1
  store i32 %88, i32* %5, align 4
  %89 = load i32, i32* %9, align 4
  %90 = add nsw i32 %89, 1
  store i32 %90, i32* %9, align 4
  br label %91

91:                                               ; preds = %84, %79
  br label %92

92:                                               ; preds = %91, %44
  %93 = load i32, i32* %2, align 4
  %94 = load i32, i32* %3, align 4
  %95 = icmp slt i32 %93, %94
  br i1 %95, label %96, label %135

96:                                               ; preds = %92
  %97 = load i32, i32* %6, align 4
  %98 = icmp eq i32 %97, 0
  br i1 %98, label %99, label %107

99:                                               ; preds = %96
  %100 = load i32, i32* %5, align 4
  %101 = load i32, i32* %2, align 4
  %102 = sub nsw i32 %101, 1
  %103 = icmp sle i32 %100, %102
  br i1 %103, label %104, label %107

104:                                              ; preds = %99
  %105 = load i32, i32* %5, align 4
  %106 = add nsw i32 %105, 2
  store i32 %106, i32* %6, align 4
  store i32 -1, i32* %5, align 4
  br label %107

107:                                              ; preds = %104, %99, %96
  %108 = load i32, i32* %6, align 4
  %109 = add nsw i32 %108, -1
  store i32 %109, i32* %6, align 4
  %110 = load i32, i32* %5, align 4
  %111 = add nsw i32 %110, 1
  store i32 %111, i32* %5, align 4
  %112 = load i32, i32* %5, align 4
  %113 = load i32, i32* %2, align 4
  %114 = sub nsw i32 %113, 1
  %115 = icmp sgt i32 %112, %114
  br i1 %115, label %116, label %123

116:                                              ; preds = %107
  store i32 0, i32* %5, align 4
  %117 = load i32, i32* %2, align 4
  %118 = load i32, i32* %9, align 4
  %119 = add nsw i32 %117, %118
  %120 = add nsw i32 %119, 1
  store i32 %120, i32* %6, align 4
  %121 = load i32, i32* %9, align 4
  %122 = add nsw i32 %121, 1
  store i32 %122, i32* %9, align 4
  br label %123

123:                                              ; preds = %116, %107
  %124 = load i32, i32* %6, align 4
  %125 = load i32, i32* %3, align 4
  %126 = sub nsw i32 %125, 1
  %127 = icmp sgt i32 %124, %126
  br i1 %127, label %128, label %134

128:                                              ; preds = %123
  %129 = load i32, i32* %3, align 4
  %130 = sub nsw i32 %129, 1
  store i32 %130, i32* %6, align 4
  %131 = load i32, i32* %10, align 4
  store i32 %131, i32* %5, align 4
  %132 = load i32, i32* %10, align 4
  %133 = add nsw i32 %132, 1
  store i32 %133, i32* %10, align 4
  br label %134

134:                                              ; preds = %128, %123
  br label %135

135:                                              ; preds = %134, %92
  br label %136

136:                                              ; preds = %135
  %137 = load i32, i32* %8, align 4
  %138 = add nsw i32 %137, 1
  store i32 %138, i32* %8, align 4
  br label %40

139:                                              ; preds = %40
  ret i32 0
}

declare dso_local i32 @__isoc99_scanf(i8*, ...) #1

declare dso_local i32 @printf(i8*, ...) #1


!llvm.module.flags = !{!0}
!llvm.ident = !{!1}

!0 = !{i32 1, !"wchar_size", i32 4}
!1 = !{!"clang version 10.0.0-4ubuntu1 "}
